target datalayout = "e-m:e-p270:32:32-p271:32:32-p272:64:64-i64:64-i128:128-f80:128-n8:16:32:64-S128"
target triple = "x86_64-pc-linux-gnu"

%struct.AVFilterContext = type { ptr, ptr, ptr, ptr, ptr, i32, ptr, ptr, i32, ptr, ptr, i32, i32, ptr, ptr, ptr, ptr, i32, ptr, i32, i32 }
%struct.VAAPIVPPContext = type { ptr, ptr, ptr, i32, i32, i32, ptr, ptr, %struct._VARectangle, i32, i32, i32, [10 x i32], i32, i32, ptr, ptr }
%struct._VARectangle = type { i16, i16, i16, i16 }
%struct.DenoiseVAAPIContext = type { %struct.VAAPIVPPContext, i32 }
%struct._VAProcFilterCap = type { %struct._VAProcFilterValueRange, [4 x i32] }
%struct._VAProcFilterValueRange = type { float, float, float, float, [4 x i32] }
%struct._VAProcFilterParameterBuffer = type { i32, float, [4 x i32] }
%struct.AVVAAPIDeviceContext = type { ptr, i32 }

@.str.11 = private unnamed_addr constant [48 x i8] c"Failed to query denoise caps context: %d (%s).\0A\00", align 1

; Function Attrs: nounwind uwtable
define internal float @map(i32 noundef %0, i32 noundef %1, i32 noundef %2, float noundef %3, float noundef %4) #2 {
  %6 = alloca i32, align 4
  %7 = alloca i32, align 4
  %8 = alloca i32, align 4
  %9 = alloca float, align 4
  %10 = alloca float, align 4
  %11 = alloca double, align 8
  %12 = alloca double, align 8
  store i32 %0, ptr %6, align 4, !tbaa !66
  store i32 %1, ptr %7, align 4, !tbaa !66
  store i32 %2, ptr %8, align 4, !tbaa !66
  store float %3, ptr %9, align 4, !tbaa !87
  store float %4, ptr %10, align 4, !tbaa !87
  call void @llvm.lifetime.start.p0(i64 8, ptr %11) #5
  call void @llvm.lifetime.start.p0(i64 8, ptr %12) #5
  %13 = load float, ptr %10, align 4, !tbaa !87
  %14 = load float, ptr %9, align 4, !tbaa !87
  %15 = fsub nsz float %13, %14
  %16 = fpext nsz float %15 to double
  %17 = fmul nsz double 1.000000e+00, %16
  %18 = load i32, ptr %8, align 4, !tbaa !66
  %19 = load i32, ptr %7, align 4, !tbaa !66
  %20 = sub nsw i32 %18, %19
  %21 = sitofp i32 %20 to double
  %22 = fdiv nsz double %17, %21
  store double %22, ptr %11, align 8, !tbaa !88
  %23 = load float, ptr %9, align 4, !tbaa !87
  %24 = fpext nsz float %23 to double
  %25 = load double, ptr %11, align 8, !tbaa !88
  %26 = load i32, ptr %6, align 4, !tbaa !66
  %27 = load i32, ptr %7, align 4, !tbaa !66
  %28 = sub nsw i32 %26, %27
  %29 = sitofp i32 %28 to double
  %30 = call nsz double @llvm.fmuladd.f64(double %25, double %29, double %24)
  store double %30, ptr %12, align 8, !tbaa !88
  %31 = load double, ptr %12, align 8, !tbaa !88
  %32 = fptrunc nsz double %31 to float
  call void @llvm.lifetime.end.p0(i64 8, ptr %12) #5
  call void @llvm.lifetime.end.p0(i64 8, ptr %11) #5
  ret float %32
}

; Function Attrs: nounwind uwtable
define internal i32 @denoise_vaapi_build_filter_params(ptr noundef %0) #2 {
  %2 = alloca i32, align 4
  %3 = alloca ptr, align 8
  %4 = alloca ptr, align 8
  %5 = alloca ptr, align 8
  %6 = alloca %struct._VAProcFilterCap, align 4
  %7 = alloca i32, align 4
  %8 = alloca i32, align 4
  %9 = alloca %struct._VAProcFilterParameterBuffer, align 4
  %10 = alloca i32, align 4
  store ptr %0, ptr %3, align 8, !tbaa !4
  call void @llvm.lifetime.start.p0(i64 8, ptr %4) #5
  %11 = load ptr, ptr %3, align 8, !tbaa !4
  %12 = getelementptr inbounds nuw %struct.AVFilterContext, ptr %11, i32 0, i32 9
  %13 = load ptr, ptr %12, align 8, !tbaa !9
  store ptr %13, ptr %4, align 8, !tbaa !22
  call void @llvm.lifetime.start.p0(i64 8, ptr %5) #5
  %14 = load ptr, ptr %3, align 8, !tbaa !4
  %15 = getelementptr inbounds nuw %struct.AVFilterContext, ptr %14, i32 0, i32 9
  %16 = load ptr, ptr %15, align 8, !tbaa !9
  store ptr %16, ptr %5, align 8, !tbaa !24
  call void @llvm.lifetime.start.p0(i64 48, ptr %6) #5
  call void @llvm.lifetime.start.p0(i64 4, ptr %7) #5
  call void @llvm.lifetime.start.p0(i64 4, ptr %8) #5
  store i32 1, ptr %8, align 4, !tbaa !66
  call void @llvm.lifetime.start.p0(i64 24, ptr %9) #5
  %17 = load ptr, ptr %4, align 8, !tbaa !22
  %18 = getelementptr inbounds nuw %struct.VAAPIVPPContext, ptr %17, i32 0, i32 1
  %19 = load ptr, ptr %18, align 8, !tbaa !76
  %20 = getelementptr inbounds nuw %struct.AVVAAPIDeviceContext, ptr %19, i32 0, i32 0
  %21 = load ptr, ptr %20, align 8, !tbaa !77
  %22 = load ptr, ptr %4, align 8, !tbaa !22
  %23 = getelementptr inbounds nuw %struct.VAAPIVPPContext, ptr %22, i32 0, i32 5
  %24 = load i32, ptr %23, align 8, !tbaa !63
  %25 = call i32 @vaQueryVideoProcFilterCaps(ptr noundef %21, i32 noundef %24, i32 noundef 1, ptr noundef %6, ptr noundef %8)
  store i32 %25, ptr %7, align 4, !tbaa !66
  %26 = load i32, ptr %7, align 4, !tbaa !66
  %27 = icmp ne i32 %26, 0
  br i1 %27, label %28, label %33

28:                                               ; preds = %1
  %29 = load ptr, ptr %3, align 8, !tbaa !4
  %30 = load i32, ptr %7, align 4, !tbaa !66
  %31 = load i32, ptr %7, align 4, !tbaa !66
  %32 = call ptr @vaErrorStr(i32 noundef %31)
  call void (ptr, i32, ptr, ...) @av_log(ptr noundef %29, i32 noundef 16, ptr noundef @.str.11, i32 noundef %30, ptr noundef %32)
  store i32 -5, ptr %2, align 4
  store i32 1, ptr %10, align 4
  br label %48

33:                                               ; preds = %1
  %34 = getelementptr inbounds nuw %struct._VAProcFilterParameterBuffer, ptr %9, i32 0, i32 0
  store i32 1, ptr %34, align 4, !tbaa !79
  %35 = load ptr, ptr %5, align 8, !tbaa !24
  %36 = getelementptr inbounds nuw %struct.DenoiseVAAPIContext, ptr %35, i32 0, i32 1
  %37 = load i32, ptr %36, align 8, !tbaa !34
  %38 = getelementptr inbounds nuw %struct._VAProcFilterCap, ptr %6, i32 0, i32 0
  %39 = getelementptr inbounds nuw %struct._VAProcFilterValueRange, ptr %38, i32 0, i32 0
  %40 = load float, ptr %39, align 4, !tbaa !82
  %41 = getelementptr inbounds nuw %struct._VAProcFilterCap, ptr %6, i32 0, i32 0
  %42 = getelementptr inbounds nuw %struct._VAProcFilterValueRange, ptr %41, i32 0, i32 1
  %43 = load float, ptr %42, align 4, !tbaa !85
  %44 = call nsz float @map(i32 noundef %37, i32 noundef 0, i32 noundef 64, float noundef %40, float noundef %43)
  %45 = getelementptr inbounds nuw %struct._VAProcFilterParameterBuffer, ptr %9, i32 0, i32 1
  store float %44, ptr %45, align 4, !tbaa !86
  %46 = load ptr, ptr %3, align 8, !tbaa !4
  %47 = call i32 @ff_vaapi_vpp_make_param_buffers(ptr noundef %46, i32 noundef 42, ptr noundef %9, i64 noundef 24, i32 noundef 1)
  store i32 %47, ptr %2, align 4
  store i32 1, ptr %10, align 4
  br label %48

48:                                               ; preds = %33, %28
  call void @llvm.lifetime.end.p0(i64 24, ptr %9) #5
  call void @llvm.lifetime.end.p0(i64 4, ptr %8) #5
  call void @llvm.lifetime.end.p0(i64 4, ptr %7) #5
  call void @llvm.lifetime.end.p0(i64 48, ptr %6) #5
  call void @llvm.lifetime.end.p0(i64 8, ptr %5) #5
  call void @llvm.lifetime.end.p0(i64 8, ptr %4) #5
  %49 = load i32, ptr %2, align 4
  ret i32 %49
}