; Function Attrs: nounwind uwtable
define internal i32 @denoise_vaapi_build_filter_params(ptr noundef %0) #2 {
  %2 = alloca %struct._VAProcFilterCap, align 4
  %3 = alloca i32, align 4
  %4 = alloca %struct._VAProcFilterParameterBuffer, align 4
  %5 = getelementptr inbounds nuw i8, ptr %0, i64 72
  %6 = load ptr, ptr %5, align 8, !tbaa !4
  call void @llvm.lifetime.start.p0(i64 48, ptr nonnull %2) #5
  call void @llvm.lifetime.start.p0(i64 4, ptr nonnull %3) #5
  store i32 1, ptr %3, align 4, !tbaa !68
  call void @llvm.lifetime.start.p0(i64 24, ptr nonnull %4) #5
  %7 = getelementptr inbounds nuw i8, ptr %6, i64 8
  %8 = load ptr, ptr %7, align 8, !tbaa !69
  %9 = load ptr, ptr %8, align 8, !tbaa !70
  %10 = getelementptr inbounds nuw i8, ptr %6, i64 32
  %11 = load i32, ptr %10, align 8, !tbaa !56
  %12 = call i32 @vaQueryVideoProcFilterCaps(ptr noundef %9, i32 noundef %11, i32 noundef 1, ptr noundef nonnull %2, ptr noundef nonnull %3) #5
  %.not = icmp eq i32 %12, 0
  br i1 %.not, label %15, label %13

13:                                               ; preds = %1
  %14 = call ptr @vaErrorStr(i32 noundef %12) #5
  call void (ptr, i32, ptr, ...) @av_log(ptr noundef nonnull %0, i32 noundef 16, ptr noundef nonnull @.str.11, i32 noundef %12, ptr noundef %14) #5
  br label %30

15:                                               ; preds = %1
  store i32 1, ptr %4, align 4, !tbaa !72
  %16 = getelementptr inbounds nuw i8, ptr %6, i64 144
  %17 = load i32, ptr %16, align 8, !tbaa !28
  %18 = load float, ptr %2, align 4, !tbaa !75
  %19 = getelementptr inbounds nuw i8, ptr %2, i64 4
  %20 = load float, ptr %19, align 4, !tbaa !78
  %21 = fsub nsz float %20, %18
  %22 = fpext nsz float %21 to double
  %23 = fmul nsz double %22, 1.562500e-02
  %24 = fpext nsz float %18 to double
  %25 = sitofp i32 %17 to double
  %26 = call nsz double @llvm.fmuladd.f64(double %23, double %25, double %24)
  %27 = fptrunc nsz double %26 to float
  %28 = getelementptr inbounds nuw i8, ptr %4, i64 4
  store float %27, ptr %28, align 4, !tbaa !79
  %29 = call i32 @ff_vaapi_vpp_make_param_buffers(ptr noundef nonnull %0, i32 noundef 42, ptr noundef nonnull %4, i64 noundef 24, i32 noundef 1) #5
  br label %30

30:                                               ; preds = %15, %13
  %.0 = phi i32 [ -5, %13 ], [ %29, %15 ]
  call void @llvm.lifetime.end.p0(i64 24, ptr nonnull %4) #5
  call void @llvm.lifetime.end.p0(i64 4, ptr nonnull %3) #5
  call void @llvm.lifetime.end.p0(i64 48, ptr nonnull %2) #5
  ret i32 %.0
}